target datalayout = "e-m:e-p270:32:32-p271:32:32-p272:64:64-i64:64-i128:128-f80:128-n8:16:32:64-S128"
target triple = "x86_64-unknown-linux-gnu"

%"class.icu_75::UnicodeString" = type { %"class.icu_75::Replaceable", %"union.icu_75::UnicodeString::StackBufferOrFields" }
%"class.icu_75::Replaceable" = type { %"class.icu_75::UObject" }
%"class.icu_75::UObject" = type { ptr }
%"union.icu_75::UnicodeString::StackBufferOrFields" = type { %struct.anon.0, [32 x i8] }
%struct.anon.0 = type { i16, i32, i32, ptr }
%"class.icu_75::NumberingSystem" = type <{ %"class.icu_75::UObject", %"class.icu_75::UnicodeString", i32, i8, [9 x i8], [2 x i8] }>
%"class.icu_75::LocalPointer" = type { %"class.icu_75::LocalPointerBase" }
%"class.icu_75::LocalPointerBase" = type { ptr }

@_ZN6icu_7515NumberingSystemC1Ev = unnamed_addr alias void (ptr), ptr @_ZN6icu_7515NumberingSystemC2Ev

; Function Attrs: mustprogress uwtable
define linkonce_odr noundef nonnull align 8 dereferenceable(64) ptr @_ZN6icu_7513UnicodeString5setToERKS0_(ptr noundef nonnull align 8 dereferenceable(64) %this, ptr noundef nonnull align 8 dereferenceable(64) %srcText) #1 comdat align 2 {
entry:
  %this.addr = alloca ptr, align 8
  %srcText.addr = alloca ptr, align 8
  store ptr %this, ptr %this.addr, align 8
  store ptr %srcText, ptr %srcText.addr, align 8
  %this1 = load ptr, ptr %this.addr, align 8
  %0 = load ptr, ptr %srcText.addr, align 8
  %call = call noundef nonnull align 8 dereferenceable(64) ptr @_ZN6icu_7513UnicodeString8copyFromERKS0_a(ptr noundef nonnull align 8 dereferenceable(64) %this1, ptr noundef nonnull align 8 dereferenceable(64) %0, i8 noundef signext 0)
  ret ptr %call
}

; Function Attrs: mustprogress nounwind uwtable
define linkonce_odr void @_ZN6icu_7516LocalPointerBaseINS_15NumberingSystemEED2Ev(ptr noundef nonnull align 8 dereferenceable(8) %this) unnamed_addr #0 comdat align 2 {
entry:
  %this.addr = alloca ptr, align 8
  store ptr %this, ptr %this.addr, align 8
  ret void
}

; Function Attrs: mustprogress nounwind uwtable
define internal noundef signext i8 @_ZL9U_SUCCESS10UErrorCode(i32 noundef %code) #0 {
entry:
  %code.addr = alloca i32, align 4
  store i32 %code, ptr %code.addr, align 4
  %0 = load i32, ptr %code.addr, align 4
  %cmp = icmp sle i32 %0, 0
  %conv = zext i1 %cmp to i8
  ret i8 %conv
}

; Function Attrs: mustprogress nounwind uwtable
define linkonce_odr void @_ZN6icu_7516LocalPointerBaseINS_15NumberingSystemEEC2EPS1_(ptr noundef nonnull align 8 dereferenceable(8) %this, ptr noundef %p) unnamed_addr #0 comdat align 2 {
entry:
  %this.addr = alloca ptr, align 8
  %p.addr = alloca ptr, align 8
  store ptr %this, ptr %this.addr, align 8
  store ptr %p, ptr %p.addr, align 8
  %this1 = load ptr, ptr %this.addr, align 8
  %ptr = getelementptr inbounds %"class.icu_75::LocalPointerBase", ptr %this1, i32 0, i32 0
  %0 = load ptr, ptr %p.addr, align 8
  store ptr %0, ptr %ptr, align 8
  ret void
}

; Function Attrs: mustprogress nounwind uwtable
define linkonce_odr noundef ptr @_ZN6icu_7516LocalPointerBaseINS_15NumberingSystemEE6orphanEv(ptr noundef nonnull align 8 dereferenceable(8) %this) #0 comdat align 2 {
entry:
  %this.addr = alloca ptr, align 8
  %p = alloca ptr, align 8
  store ptr %this, ptr %this.addr, align 8
  %this1 = load ptr, ptr %this.addr, align 8
  %ptr = getelementptr inbounds %"class.icu_75::LocalPointerBase", ptr %this1, i32 0, i32 0
  %0 = load ptr, ptr %ptr, align 8
  store ptr %0, ptr %p, align 8
  %ptr2 = getelementptr inbounds %"class.icu_75::LocalPointerBase", ptr %this1, i32 0, i32 0
  store ptr null, ptr %ptr2, align 8
  %1 = load ptr, ptr %p, align 8
  ret ptr %1
}

; Function Attrs: mustprogress nounwind uwtable
define void @_ZN6icu_7515NumberingSystem7setNameEPKc(ptr noundef nonnull align 8 dereferenceable(86) %this, ptr noundef %n) #0 align 2 {
entry:
  %this.addr = alloca ptr, align 8
  %n.addr = alloca ptr, align 8
  store ptr %this, ptr %this.addr, align 8
  store ptr %n, ptr %n.addr, align 8
  %this1 = load ptr, ptr %this.addr, align 8
  %0 = load ptr, ptr %n.addr, align 8
  %cmp = icmp eq ptr %0, null
  br i1 %cmp, label %if.then, label %if.else

if.then:                                          ; preds = %entry
  %name = getelementptr inbounds %"class.icu_75::NumberingSystem", ptr %this1, i32 0, i32 4
  %arrayidx = getelementptr inbounds [9 x i8], ptr %name, i64 0, i64 0
  store i8 0, ptr %arrayidx, align 1
  br label %if.end

if.else:                                          ; preds = %entry
  %name2 = getelementptr inbounds %"class.icu_75::NumberingSystem", ptr %this1, i32 0, i32 4
  %arraydecay = getelementptr inbounds [9 x i8], ptr %name2, i64 0, i64 0
  %1 = load ptr, ptr %n.addr, align 8
  %call = call ptr @strncpy(ptr noundef %arraydecay, ptr noundef %1, i64 noundef 8) #8
  %name3 = getelementptr inbounds %"class.icu_75::NumberingSystem", ptr %this1, i32 0, i32 4
  %arrayidx4 = getelementptr inbounds [9 x i8], ptr %name3, i64 0, i64 8
  store i8 0, ptr %arrayidx4, align 1
  br label %if.end

if.end:                                           ; preds = %if.else, %if.then
  ret void
}

; Function Attrs: mustprogress nounwind uwtable
define void @_ZN6icu_7515NumberingSystem14setAlgorithmicEa(ptr noundef nonnull align 8 dereferenceable(86) %this, i8 noundef signext %c) #0 align 2 {
entry:
  %this.addr = alloca ptr, align 8
  %c.addr = alloca i8, align 1
  store ptr %this, ptr %this.addr, align 8
  store i8 %c, ptr %c.addr, align 1
  %this1 = load ptr, ptr %this.addr, align 8
  %0 = load i8, ptr %c.addr, align 1
  %algorithmic = getelementptr inbounds %"class.icu_75::NumberingSystem", ptr %this1, i32 0, i32 3
  store i8 %0, ptr %algorithmic, align 4
  ret void
}

; Function Attrs: mustprogress uwtable
define void @_ZN6icu_7515NumberingSystem7setDescERKNS_13UnicodeStringE(ptr noundef nonnull align 8 dereferenceable(86) %this, ptr noundef nonnull align 8 dereferenceable(64) %d) #1 align 2 {
entry:
  %this.addr = alloca ptr, align 8
  %d.addr = alloca ptr, align 8
  store ptr %this, ptr %this.addr, align 8
  store ptr %d, ptr %d.addr, align 8
  %this1 = load ptr, ptr %this.addr, align 8
  %desc = getelementptr inbounds %"class.icu_75::NumberingSystem", ptr %this1, i32 0, i32 1
  %0 = load ptr, ptr %d.addr, align 8
  %call = call noundef nonnull align 8 dereferenceable(64) ptr @_ZN6icu_7513UnicodeString5setToERKS0_(ptr noundef nonnull align 8 dereferenceable(64) %desc, ptr noundef nonnull align 8 dereferenceable(64) %0)
  ret void
}

; Function Attrs: mustprogress nounwind uwtable
define void @_ZN6icu_7515NumberingSystem8setRadixEi(ptr noundef nonnull align 8 dereferenceable(86) %this, i32 noundef %r) #0 align 2 {
entry:
  %this.addr = alloca ptr, align 8
  %r.addr = alloca i32, align 4
  store ptr %this, ptr %this.addr, align 8
  store i32 %r, ptr %r.addr, align 4
  %this1 = load ptr, ptr %this.addr, align 8
  %0 = load i32, ptr %r.addr, align 4
  %radix = getelementptr inbounds %"class.icu_75::NumberingSystem", ptr %this1, i32 0, i32 2
  store i32 %0, ptr %radix, align 8
  ret void
}

; Function Attrs: mustprogress nounwind uwtable
define linkonce_odr noundef ptr @_ZNK6icu_7516LocalPointerBaseINS_15NumberingSystemEEptEv(ptr noundef nonnull align 8 dereferenceable(8) %this) #0 comdat align 2 {
entry:
  %this.addr = alloca ptr, align 8
  store ptr %this, ptr %this.addr, align 8
  %this1 = load ptr, ptr %this.addr, align 8
  %ptr = getelementptr inbounds %"class.icu_75::LocalPointerBase", ptr %this1, i32 0, i32 0
  %0 = load ptr, ptr %ptr, align 8
  ret ptr %0
}

; Function Attrs: mustprogress nounwind uwtable
define linkonce_odr void @_ZN6icu_7512LocalPointerINS_15NumberingSystemEED2Ev(ptr noundef nonnull align 8 dereferenceable(8) %this) unnamed_addr #0 comdat align 2 {
entry:
  %this.addr = alloca ptr, align 8
  store ptr %this, ptr %this.addr, align 8
  %this1 = load ptr, ptr %this.addr, align 8
  %ptr = getelementptr inbounds %"class.icu_75::LocalPointerBase", ptr %this1, i32 0, i32 0
  %0 = load ptr, ptr %ptr, align 8
  %isnull = icmp eq ptr %0, null
  br i1 %isnull, label %delete.end, label %delete.notnull

delete.notnull:                                   ; preds = %entry
  %vtable = load ptr, ptr %0, align 8
  %vfn = getelementptr inbounds ptr, ptr %vtable, i64 1
  %1 = load ptr, ptr %vfn, align 8
  call void %1(ptr noundef nonnull align 8 dereferenceable(86) %0) #8
  br label %delete.end

delete.end:                                       ; preds = %delete.notnull, %entry
  call void @_ZN6icu_7516LocalPointerBaseINS_15NumberingSystemEED2Ev(ptr noundef nonnull align 8 dereferenceable(8) %this1) #8
  ret void
}

; Function Attrs: mustprogress uwtable
define linkonce_odr void @_ZN6icu_7512LocalPointerINS_15NumberingSystemEEC2EPS1_R10UErrorCode(ptr noundef nonnull align 8 dereferenceable(8) %this, ptr noundef %p, ptr noundef nonnull align 4 dereferenceable(4) %errorCode) unnamed_addr #1 comdat align 2 {
entry:
  %this.addr = alloca ptr, align 8
  %p.addr = alloca ptr, align 8
  %errorCode.addr = alloca ptr, align 8
  store ptr %this, ptr %this.addr, align 8
  store ptr %p, ptr %p.addr, align 8
  store ptr %errorCode, ptr %errorCode.addr, align 8
  %this1 = load ptr, ptr %this.addr, align 8
  %0 = load ptr, ptr %p.addr, align 8
  call void @_ZN6icu_7516LocalPointerBaseINS_15NumberingSystemEEC2EPS1_(ptr noundef nonnull align 8 dereferenceable(8) %this1, ptr noundef %0)
  %1 = load ptr, ptr %p.addr, align 8
  %cmp = icmp eq ptr %1, null
  br i1 %cmp, label %land.lhs.true, label %if.end

land.lhs.true:                                    ; preds = %entry
  %2 = load ptr, ptr %errorCode.addr, align 8
  %3 = load i32, ptr %2, align 4
  %call = call noundef signext i8 @_ZL9U_SUCCESS10UErrorCode(i32 noundef %3)
  %tobool = icmp ne i8 %call, 0
  br i1 %tobool, label %if.then, label %if.end

if.then:                                          ; preds = %land.lhs.true
  %4 = load ptr, ptr %errorCode.addr, align 8
  store i32 7, ptr %4, align 4
  br label %if.end

if.end:                                           ; preds = %if.then, %land.lhs.true, %entry
  ret void
}

; Function Attrs: mustprogress nounwind uwtable
define internal noundef signext i8 @_ZL9U_FAILURE10UErrorCode(i32 noundef %code) #0 {
entry:
  %code.addr = alloca i32, align 4
  store i32 %code, ptr %code.addr, align 4
  %0 = load i32, ptr %code.addr, align 4
  %cmp = icmp sgt i32 %0, 0
  %conv = zext i1 %cmp to i8
  ret i8 %conv
}

; Function Attrs: mustprogress uwtable
define noundef ptr @_ZN6icu_7515NumberingSystem14createInstanceEiaRKNS_13UnicodeStringER10UErrorCode(i32 noundef %radix_in, i8 noundef signext %isAlgorithmic_in, ptr noundef nonnull align 8 dereferenceable(64) %desc_in, ptr noundef nonnull align 4 dereferenceable(4) %status) #1 align 2 personality ptr @__gxx_personality_v0 {
entry:
  %retval = alloca ptr, align 8
  %radix_in.addr = alloca i32, align 4
  %isAlgorithmic_in.addr = alloca i8, align 1
  %desc_in.addr = alloca ptr, align 8
  %status.addr = alloca ptr, align 8
  %ns = alloca %"class.icu_75::LocalPointer", align 8
  %saved-rvalue = alloca ptr, align 8
  %cleanup.cond = alloca i1, align 1
  %exn.slot = alloca ptr, align 8
  %ehselector.slot = alloca i32, align 4
  %cleanup.dest.slot = alloca i32, align 4
  store i32 %radix_in, ptr %radix_in.addr, align 4
  store i8 %isAlgorithmic_in, ptr %isAlgorithmic_in.addr, align 1
  store ptr %desc_in, ptr %desc_in.addr, align 8
  store ptr %status, ptr %status.addr, align 8
  %0 = load ptr, ptr %status.addr, align 8
  %1 = load i32, ptr %0, align 4
  %call = call noundef signext i8 @_ZL9U_FAILURE10UErrorCode(i32 noundef %1)
  %tobool = icmp ne i8 %call, 0
  br i1 %tobool, label %if.then, label %if.end

if.then:                                          ; preds = %entry
  store ptr null, ptr %retval, align 8
  br label %return

if.end:                                           ; preds = %entry
  %2 = load i32, ptr %radix_in.addr, align 4
  %cmp = icmp slt i32 %2, 2
  br i1 %cmp, label %if.then1, label %if.end2

if.then1:                                         ; preds = %if.end
  %3 = load ptr, ptr %status.addr, align 8
  store i32 1, ptr %3, align 4
  store ptr null, ptr %retval, align 8
  br label %return

if.end2:                                          ; preds = %if.end
  %4 = load i8, ptr %isAlgorithmic_in.addr, align 1
  %tobool3 = icmp ne i8 %4, 0
  br i1 %tobool3, label %if.end9, label %if.then4

if.then4:                                         ; preds = %if.end2
  %5 = load ptr, ptr %desc_in.addr, align 8
  %call5 = call noundef i32 @_ZNK6icu_7513UnicodeString11countChar32Eii(ptr noundef nonnull align 8 dereferenceable(64) %5, i32 noundef 0, i32 noundef 2147483647)
  %6 = load i32, ptr %radix_in.addr, align 4
  %cmp6 = icmp ne i32 %call5, %6
  br i1 %cmp6, label %if.then7, label %if.end8

if.then7:                                         ; preds = %if.then4
  %7 = load ptr, ptr %status.addr, align 8
  store i32 1, ptr %7, align 4
  store ptr null, ptr %retval, align 8
  br label %return

if.end8:                                          ; preds = %if.then4
  br label %if.end9

if.end9:                                          ; preds = %if.end8, %if.end2
  %call10 = call noundef ptr @_ZN6icu_757UMemorynwEm(i64 noundef 88) #8
  %new.isnull = icmp eq ptr %call10, null
  store i1 false, ptr %cleanup.cond, align 1
  br i1 %new.isnull, label %new.cont, label %new.notnull

new.notnull:                                      ; preds = %if.end9
  store ptr %call10, ptr %saved-rvalue, align 8
  store i1 true, ptr %cleanup.cond, align 1
  invoke void @_ZN6icu_7515NumberingSystemC1Ev(ptr noundef nonnull align 8 dereferenceable(86) %call10)
          to label %invoke.cont unwind label %lpad

invoke.cont:                                      ; preds = %new.notnull
  br label %new.cont

new.cont:                                         ; preds = %invoke.cont, %if.end9
  %8 = phi ptr [ %call10, %invoke.cont ], [ null, %if.end9 ]
  %9 = load ptr, ptr %status.addr, align 8
  call void @_ZN6icu_7512LocalPointerINS_15NumberingSystemEEC2EPS1_R10UErrorCode(ptr noundef nonnull align 8 dereferenceable(8) %ns, ptr noundef %8, ptr noundef nonnull align 4 dereferenceable(4) %9)
  %10 = load ptr, ptr %status.addr, align 8
  %11 = load i32, ptr %10, align 4
  %call13 = invoke noundef signext i8 @_ZL9U_FAILURE10UErrorCode(i32 noundef %11)
          to label %invoke.cont12 unwind label %lpad11

invoke.cont12:                                    ; preds = %new.cont
  %tobool14 = icmp ne i8 %call13, 0
  br i1 %tobool14, label %if.then15, label %if.end16

if.then15:                                        ; preds = %invoke.cont12
  store ptr null, ptr %retval, align 8
  store i32 1, ptr %cleanup.dest.slot, align 4
  br label %cleanup

lpad:                                             ; preds = %new.notnull
  %12 = landingpad { ptr, i32 }
          cleanup
  %13 = extractvalue { ptr, i32 } %12, 0
  store ptr %13, ptr %exn.slot, align 8
  %14 = extractvalue { ptr, i32 } %12, 1
  store i32 %14, ptr %ehselector.slot, align 4
  %cleanup.is_active = load i1, ptr %cleanup.cond, align 1
  br i1 %cleanup.is_active, label %cleanup.action, label %cleanup.done

cleanup.action:                                   ; preds = %lpad
  %15 = load ptr, ptr %saved-rvalue, align 8
  call void @_ZN6icu_757UMemorydlEPv(ptr noundef %15) #8
  br label %cleanup.done

cleanup.done:                                     ; preds = %cleanup.action, %lpad
  br label %eh.resume

lpad11:                                           ; preds = %invoke.cont28, %invoke.cont26, %invoke.cont25, %invoke.cont23, %invoke.cont22, %invoke.cont20, %invoke.cont19, %invoke.cont17, %if.end16, %new.cont
  %16 = landingpad { ptr, i32 }
          cleanup
  %17 = extractvalue { ptr, i32 } %16, 0
  store ptr %17, ptr %exn.slot, align 8
  %18 = extractvalue { ptr, i32 } %16, 1
  store i32 %18, ptr %ehselector.slot, align 4
  call void @_ZN6icu_7512LocalPointerINS_15NumberingSystemEED2Ev(ptr noundef nonnull align 8 dereferenceable(8) %ns) #8
  br label %eh.resume

if.end16:                                         ; preds = %invoke.cont12
  %call18 = invoke noundef ptr @_ZNK6icu_7516LocalPointerBaseINS_15NumberingSystemEEptEv(ptr noundef nonnull align 8 dereferenceable(8) %ns)
          to label %invoke.cont17 unwind label %lpad11

invoke.cont17:                                    ; preds = %if.end16
  %19 = load i32, ptr %radix_in.addr, align 4
  invoke void @_ZN6icu_7515NumberingSystem8setRadixEi(ptr noundef nonnull align 8 dereferenceable(86) %call18, i32 noundef %19)
          to label %invoke.cont19 unwind label %lpad11

invoke.cont19:                                    ; preds = %invoke.cont17
  %call21 = invoke noundef ptr @_ZNK6icu_7516LocalPointerBaseINS_15NumberingSystemEEptEv(ptr noundef nonnull align 8 dereferenceable(8) %ns)
          to label %invoke.cont20 unwind label %lpad11

invoke.cont20:                                    ; preds = %invoke.cont19
  %20 = load ptr, ptr %desc_in.addr, align 8
  invoke void @_ZN6icu_7515NumberingSystem7setDescERKNS_13UnicodeStringE(ptr noundef nonnull align 8 dereferenceable(86) %call21, ptr noundef nonnull align 8 dereferenceable(64) %20)
          to label %invoke.cont22 unwind label %lpad11

invoke.cont22:                                    ; preds = %invoke.cont20
  %call24 = invoke noundef ptr @_ZNK6icu_7516LocalPointerBaseINS_15NumberingSystemEEptEv(ptr noundef nonnull align 8 dereferenceable(8) %ns)
          to label %invoke.cont23 unwind label %lpad11

invoke.cont23:                                    ; preds = %invoke.cont22
  %21 = load i8, ptr %isAlgorithmic_in.addr, align 1
  invoke void @_ZN6icu_7515NumberingSystem14setAlgorithmicEa(ptr noundef nonnull align 8 dereferenceable(86) %call24, i8 noundef signext %21)
          to label %invoke.cont25 unwind label %lpad11

invoke.cont25:                                    ; preds = %invoke.cont23
  %call27 = invoke noundef ptr @_ZNK6icu_7516LocalPointerBaseINS_15NumberingSystemEEptEv(ptr noundef nonnull align 8 dereferenceable(8) %ns)
          to label %invoke.cont26 unwind label %lpad11

invoke.cont26:                                    ; preds = %invoke.cont25
  invoke void @_ZN6icu_7515NumberingSystem7setNameEPKc(ptr noundef nonnull align 8 dereferenceable(86) %call27, ptr noundef null)
          to label %invoke.cont28 unwind label %lpad11

invoke.cont28:                                    ; preds = %invoke.cont26
  %call30 = invoke noundef ptr @_ZN6icu_7516LocalPointerBaseINS_15NumberingSystemEE6orphanEv(ptr noundef nonnull align 8 dereferenceable(8) %ns)
          to label %invoke.cont29 unwind label %lpad11

invoke.cont29:                                    ; preds = %invoke.cont28
  store ptr %call30, ptr %retval, align 8
  store i32 1, ptr %cleanup.dest.slot, align 4
  br label %cleanup

cleanup:                                          ; preds = %invoke.cont29, %if.then15
  call void @_ZN6icu_7512LocalPointerINS_15NumberingSystemEED2Ev(ptr noundef nonnull align 8 dereferenceable(8) %ns) #8
  br label %return

return:                                           ; preds = %cleanup, %if.then7, %if.then1, %if.then
  %22 = load ptr, ptr %retval, align 8
  ret ptr %22

eh.resume:                                        ; preds = %lpad11, %cleanup.done
  %exn = load ptr, ptr %exn.slot, align 8
  %sel = load i32, ptr %ehselector.slot, align 4
  %lpad.val = insertvalue { ptr, i32 } poison, ptr %exn, 0
  %lpad.val31 = insertvalue { ptr, i32 } %lpad.val, i32 %sel, 1
  resume { ptr, i32 } %lpad.val31
}