; Function Attrs: mustprogress uwtable
define noundef ptr @_ZN6icu_7515NumberingSystem14createInstanceEiaRKNS_13UnicodeStringER10UErrorCode(i32 noundef %radix_in, i8 noundef signext %isAlgorithmic_in, ptr noundef nonnull align 8 dereferenceable(64) %desc_in, ptr nocapture noundef nonnull align 4 dereferenceable(4) %status) local_unnamed_addr #1 align 2 personality ptr @__gxx_personality_v0 {
entry:
  %0 = load i32, ptr %status, align 4
  %cmp.i = icmp slt i32 %0, 1
  br i1 %cmp.i, label %if.end, label %return

if.end:                                           ; preds = %entry
  %cmp = icmp slt i32 %radix_in, 2
  br i1 %cmp, label %if.then1, label %if.end2

if.then1:                                         ; preds = %if.end
  store i32 1, ptr %status, align 4
  br label %return

if.end2:                                          ; preds = %if.end
  %tobool3.not = icmp eq i8 %isAlgorithmic_in, 0
  br i1 %tobool3.not, label %if.then4, label %if.end9

if.then4:                                         ; preds = %if.end2
  %call5 = tail call noundef i32 @_ZNK6icu_7513UnicodeString11countChar32Eii(ptr noundef nonnull align 8 dereferenceable(64) %desc_in, i32 noundef 0, i32 noundef 2147483647)
  %cmp6.not = icmp eq i32 %call5, %radix_in
  br i1 %cmp6.not, label %if.end9, label %if.then7

if.then7:                                         ; preds = %if.then4
  store i32 1, ptr %status, align 4
  br label %return

if.end9:                                          ; preds = %if.then4, %if.end2
  %call10 = tail call noundef ptr @_ZN6icu_757UMemorynwEm(i64 noundef 88) #16
  %new.isnull = icmp eq ptr %call10, null
  br i1 %new.isnull, label %new.cont, label %new.notnull

new.notnull:                                      ; preds = %if.end9
  invoke void @_ZN6icu_7515NumberingSystemC1Ev(ptr noundef nonnull align 8 dereferenceable(86) %call10)
          to label %_ZN6icu_7512LocalPointerINS_15NumberingSystemEEC2EPS1_R10UErrorCode.exit unwind label %lpad

new.cont:                                         ; preds = %if.end9
  %1 = load i32, ptr %status, align 4
  %cmp.i.i = icmp sgt i32 %1, 0
  br i1 %cmp.i.i, label %return, label %if.then.i

if.then.i:                                        ; preds = %new.cont
  store i32 7, ptr %status, align 4
  br label %return

_ZN6icu_7512LocalPointerINS_15NumberingSystemEEC2EPS1_R10UErrorCode.exit: ; preds = %new.notnull
  %.pre = load i32, ptr %status, align 4
  %2 = icmp slt i32 %.pre, 1
  br i1 %2, label %if.end16, label %delete.notnull.i15

lpad:                                             ; preds = %new.notnull
  %3 = landingpad { ptr, i32 }
          cleanup
  tail call void @_ZN6icu_757UMemorydlEPv(ptr noundef nonnull %call10) #16
  br label %eh.resume

_ZN6icu_7512LocalPointerINS_15NumberingSystemEED2Ev.exit: ; preds = %if.end16
  %4 = landingpad { ptr, i32 }
          cleanup
  %vtable.i = load ptr, ptr %call10, align 8
  %vfn.i = getelementptr inbounds i8, ptr %vtable.i, i64 8
  %5 = load ptr, ptr %vfn.i, align 8
  tail call void %5(ptr noundef nonnull align 8 dereferenceable(86) %call10) #16
  br label %eh.resume

if.end16:                                         ; preds = %_ZN6icu_7512LocalPointerINS_15NumberingSystemEEC2EPS1_R10UErrorCode.exit
  %radix.i = getelementptr inbounds i8, ptr %call10, i64 72
  store i32 %radix_in, ptr %radix.i, align 8
  %desc.i = getelementptr inbounds i8, ptr %call10, i64 8
  %call.i.i13 = invoke noundef nonnull align 8 dereferenceable(64) ptr @_ZN6icu_7513UnicodeString8copyFromERKS0_a(ptr noundef nonnull align 8 dereferenceable(64) %desc.i, ptr noundef nonnull align 8 dereferenceable(64) %desc_in, i8 noundef signext 0)
          to label %cleanup.thread unwind label %_ZN6icu_7512LocalPointerINS_15NumberingSystemEED2Ev.exit

cleanup.thread:                                   ; preds = %if.end16
  %algorithmic.i = getelementptr inbounds i8, ptr %call10, i64 76
  store i8 %isAlgorithmic_in, ptr %algorithmic.i, align 4
  %name.i = getelementptr inbounds i8, ptr %call10, i64 77
  store i8 0, ptr %name.i, align 1
  br label %return

delete.notnull.i15:                               ; preds = %_ZN6icu_7512LocalPointerINS_15NumberingSystemEEC2EPS1_R10UErrorCode.exit
  %vtable.i16 = load ptr, ptr %call10, align 8
  %vfn.i17 = getelementptr inbounds i8, ptr %vtable.i16, i64 8
  %6 = load ptr, ptr %vfn.i17, align 8
  tail call void %6(ptr noundef nonnull align 8 dereferenceable(86) %call10) #16
  br label %return

return:                                           ; preds = %new.cont, %if.then.i, %delete.notnull.i15, %cleanup.thread, %entry, %if.then7, %if.then1
  %retval.1 = phi ptr [ null, %if.then1 ], [ null, %if.then7 ], [ null, %entry ], [ %call10, %cleanup.thread ], [ null, %delete.notnull.i15 ], [ null, %if.then.i ], [ null, %new.cont ]
  ret ptr %retval.1

eh.resume:                                        ; preds = %lpad, %_ZN6icu_7512LocalPointerINS_15NumberingSystemEED2Ev.exit
  %.pn = phi { ptr, i32 } [ %4, %_ZN6icu_7512LocalPointerINS_15NumberingSystemEED2Ev.exit ], [ %3, %lpad ]
  resume { ptr, i32 } %.pn
}